; Function Attrs: nounwind uwtable
define noalias nonnull ptr @l_Lean_Linter_initFn____x40_Lean_Linter_UnusedVariables___hyg_426____lambda__2(ptr noundef %0, ptr noundef %1) #1 {
  tail call void @lean_inc_heartbeat() #7
  %3 = tail call noalias ptr @mi_malloc_small(i64 noundef 24) #7
  %4 = icmp eq ptr %3, null
  br i1 %4, label %5, label %lean_alloc_ctor.exit

5:                                                ; preds = %2
  tail call void @lean_internal_panic_out_of_memory() #8
  unreachable

lean_alloc_ctor.exit:                             ; preds = %2
  %6 = getelementptr inbounds nuw i8, ptr %3, i64 4
  store i32 1, ptr %3, align 4, !tbaa !8
  store i32 131096, ptr %6, align 4
  %7 = getelementptr inbounds nuw i8, ptr %3, i64 8
  store ptr inttoptr (i64 1 to ptr), ptr %7, align 8, !tbaa !4
  %8 = getelementptr inbounds nuw i8, ptr %3, i64 16
  store ptr %0, ptr %8, align 8, !tbaa !4
  tail call void @lean_inc_heartbeat() #7
  %9 = tail call noalias ptr @mi_malloc_small(i64 noundef 24) #7
  %10 = icmp eq ptr %9, null
  br i1 %10, label %11, label %lean_alloc_ctor.exit9

11:                                               ; preds = %lean_alloc_ctor.exit
  tail call void @lean_internal_panic_out_of_memory() #8
  unreachable

lean_alloc_ctor.exit9:                            ; preds = %lean_alloc_ctor.exit
  %12 = getelementptr inbounds nuw i8, ptr %9, i64 4
  store i32 1, ptr %9, align 4, !tbaa !8
  store i32 131096, ptr %12, align 4
  %13 = getelementptr inbounds nuw i8, ptr %9, i64 8
  store ptr %3, ptr %13, align 8, !tbaa !4
  %14 = getelementptr inbounds nuw i8, ptr %9, i64 16
  store ptr %1, ptr %14, align 8, !tbaa !4
  ret ptr %9
}